; Function Attrs: nounwind uwtable
define internal ptr @sm2_dupctx(ptr noundef %0) #0 {
  %2 = tail call noalias ptr @CRYPTO_zalloc(i64 noundef 40, ptr noundef nonnull @.str, i32 noundef 137) #5
  %3 = icmp eq ptr %2, null
  br i1 %3, label %15, label %4

4:                                                ; preds = %1
  tail call void @llvm.memcpy.p0.p0.i64(ptr noundef nonnull align 8 dereferenceable(40) %2, ptr noundef nonnull align 8 dereferenceable(40) %0, i64 16, i1 false), !tbaa.struct !19
  %5 = getelementptr inbounds nuw i8, ptr %2, i64 16
  tail call void @llvm.memset.p0.i64(ptr noundef nonnull align 8 dereferenceable(24) %5, i8 0, i64 24, i1 false)
  %6 = getelementptr inbounds nuw i8, ptr %2, i64 8
  %7 = load ptr, ptr %6, align 8, !tbaa !13
  %.not = icmp eq ptr %7, null
  br i1 %.not, label %10, label %8

8:                                                ; preds = %4
  %9 = tail call i32 @EC_KEY_up_ref(ptr noundef nonnull %7) #5
  %.not15 = icmp eq i32 %9, 0
  br i1 %.not15, label %.sink.split, label %10

10:                                               ; preds = %8, %4
  %11 = getelementptr inbounds nuw i8, ptr %0, i64 16
  %12 = tail call i32 @ossl_prov_digest_copy(ptr noundef nonnull %5, ptr noundef nonnull %11) #5
  %.not16 = icmp eq i32 %12, 0
  br i1 %.not16, label %13, label %15

13:                                               ; preds = %10
  %14 = load ptr, ptr %6, align 8, !tbaa !13
  tail call void @EC_KEY_free(ptr noundef %14) #5
  tail call void @ossl_prov_digest_reset(ptr noundef nonnull %5) #5
  br label %.sink.split

.sink.split:                                      ; preds = %8, %13
  %.sink = phi i32 [ 129, %13 ], [ 145, %8 ]
  tail call void @CRYPTO_free(ptr noundef nonnull %2, ptr noundef nonnull @.str, i32 noundef %.sink) #5
  br label %15

15:                                               ; preds = %.sink.split, %10, %1
  %.0 = phi ptr [ null, %1 ], [ %2, %10 ], [ null, %.sink.split ]
  ret ptr %.0
}